target datalayout = "e-m:e-p270:32:32-p271:32:32-p272:64:64-i64:64-i128:128-f80:128-n8:16:32:64-S128"
target triple = "x86_64-pc-linux-gnu"

%struct.expert_field = type { i32, i32 }
%struct._packet_info = type { ptr, ptr, i32, i32, %struct.nstime_t, %struct.nstime_t, %struct.nstime_t, i8, ptr, ptr, ptr, ptr, %struct._address, %struct._address, %struct._address, %struct._address, %struct._address, %struct._address, i32, ptr, i8, [3 x i8], %struct.anon, i32, i32, i32, i32, ptr, i8, ptr, ptr, i16, i16, i32, i32, i16, i32, i32, ptr, ptr, ptr, i8, i8, i16, i16, i16, i32, i16, i16, ptr, ptr, ptr, ptr, ptr, i32, i32 }
%struct.nstime_t = type { i64, i32 }
%struct._address = type { i32, i32, ptr, ptr }
%struct.anon = type { i8, [3 x i8] }

@hf_nas_eps_esm_pdn_type = internal global i32 0, align 4
@hf_nas_eps_esm_request_type = internal global i32 0, align 4
@ei_nas_eps_extraneous_data = internal global %struct.expert_field zeroinitializer, align 4

; Function Attrs: null_pointer_is_valid sspstrong uwtable
define hidden void @nas_esm_pdn_con_req(ptr noundef %0, ptr noundef %1, ptr noundef %2, i32 noundef %3, i32 noundef %4) #1 {
  %6 = alloca ptr, align 8
  %7 = alloca ptr, align 8
  %8 = alloca ptr, align 8
  %9 = alloca i32, align 4
  %10 = alloca i32, align 4
  %11 = alloca i32, align 4
  %12 = alloca i32, align 4
  %13 = alloca i32, align 4
  %14 = alloca i32, align 4
  %15 = alloca i32, align 4
  store ptr %0, ptr %6, align 8
  store ptr %1, ptr %7, align 8
  store ptr %2, ptr %8, align 8
  store i32 %3, ptr %9, align 4
  store i32 %4, ptr %10, align 4
  call void @llvm.lifetime.start.p0(i64 4, ptr %11) #10
  call void @llvm.lifetime.start.p0(i64 4, ptr %12) #10
  call void @llvm.lifetime.start.p0(i64 4, ptr %13) #10
  call void @llvm.lifetime.start.p0(i64 4, ptr %14) #10
  %16 = load i32, ptr %9, align 4
  store i32 %16, ptr %11, align 4
  %17 = load i32, ptr %10, align 4
  store i32 %17, ptr %13, align 4
  %18 = load ptr, ptr %8, align 8
  %19 = getelementptr inbounds nuw %struct._packet_info, ptr %18, i32 0, i32 46
  store i32 0, ptr %19, align 8
  %20 = load i32, ptr %11, align 4
  %21 = shl i32 %20, 3
  store i32 %21, ptr %14, align 4
  %22 = load ptr, ptr %7, align 8
  %23 = load i32, ptr @hf_nas_eps_esm_pdn_type, align 4
  %24 = load ptr, ptr %6, align 8
  %25 = load i32, ptr %14, align 4
  %26 = call ptr @proto_tree_add_bits_item(ptr noundef %22, i32 noundef %23, ptr noundef %24, i32 noundef %25, i32 noundef 4, i32 noundef 0)
  %27 = load i32, ptr %14, align 4
  %28 = add i32 %27, 4
  store i32 %28, ptr %14, align 4
  %29 = load ptr, ptr %7, align 8
  %30 = load i32, ptr @hf_nas_eps_esm_request_type, align 4
  %31 = load ptr, ptr %6, align 8
  %32 = load i32, ptr %14, align 4
  %33 = call ptr @proto_tree_add_bits_item(ptr noundef %29, i32 noundef %30, ptr noundef %31, i32 noundef %32, i32 noundef 4, i32 noundef 0)
  %34 = load i32, ptr %13, align 4
  %35 = add i32 %34, -1
  store i32 %35, ptr %13, align 4
  %36 = load i32, ptr %11, align 4
  %37 = add i32 %36, 1
  store i32 %37, ptr %11, align 4
  %38 = load i32, ptr %13, align 4
  %39 = icmp sle i32 %38, 0
  br i1 %39, label %40, label %41

40:                                               ; preds = %5
  store i32 1, ptr %15, align 4
  br label %191

41:                                               ; preds = %5
  %42 = load ptr, ptr %6, align 8
  %43 = load ptr, ptr %7, align 8
  %44 = load ptr, ptr %8, align 8
  %45 = load i32, ptr %11, align 4
  %46 = call zeroext i16 @elem_tv_short(ptr noundef %42, ptr noundef %43, ptr noundef %44, i8 noundef zeroext -48, i32 noundef 11, i32 noundef 5, i32 noundef %45, ptr noundef null)
  %47 = zext i16 %46 to i32
  store i32 %47, ptr %12, align 4
  %48 = icmp ugt i32 %47, 0
  br i1 %48, label %49, label %56

49:                                               ; preds = %41
  %50 = load i32, ptr %12, align 4
  %51 = load i32, ptr %11, align 4
  %52 = add i32 %51, %50
  store i32 %52, ptr %11, align 4
  %53 = load i32, ptr %12, align 4
  %54 = load i32, ptr %13, align 4
  %55 = sub i32 %54, %53
  store i32 %55, ptr %13, align 4
  br label %56

56:                                               ; preds = %49, %41
  %57 = load i32, ptr %13, align 4
  %58 = icmp sle i32 %57, 0
  br i1 %58, label %59, label %60

59:                                               ; preds = %56
  store i32 1, ptr %15, align 4
  br label %191

60:                                               ; preds = %56
  %61 = load ptr, ptr %6, align 8
  %62 = load ptr, ptr %7, align 8
  %63 = load ptr, ptr %8, align 8
  %64 = load i32, ptr %11, align 4
  %65 = load i32, ptr %13, align 4
  %66 = call zeroext i16 @elem_tlv(ptr noundef %61, ptr noundef %62, ptr noundef %63, i8 noundef zeroext 40, i32 noundef 5, i32 noundef 43, i32 noundef %64, i32 noundef %65, ptr noundef null)
  %67 = zext i16 %66 to i32
  store i32 %67, ptr %12, align 4
  %68 = icmp ugt i32 %67, 0
  br i1 %68, label %69, label %76

69:                                               ; preds = %60
  %70 = load i32, ptr %12, align 4
  %71 = load i32, ptr %11, align 4
  %72 = add i32 %71, %70
  store i32 %72, ptr %11, align 4
  %73 = load i32, ptr %12, align 4
  %74 = load i32, ptr %13, align 4
  %75 = sub i32 %74, %73
  store i32 %75, ptr %13, align 4
  br label %76

76:                                               ; preds = %69, %60
  %77 = load i32, ptr %13, align 4
  %78 = icmp sle i32 %77, 0
  br i1 %78, label %79, label %80

79:                                               ; preds = %76
  store i32 1, ptr %15, align 4
  br label %191

80:                                               ; preds = %76
  %81 = load ptr, ptr %6, align 8
  %82 = load ptr, ptr %7, align 8
  %83 = load ptr, ptr %8, align 8
  %84 = load i32, ptr %11, align 4
  %85 = load i32, ptr %13, align 4
  %86 = call zeroext i16 @elem_tlv(ptr noundef %81, ptr noundef %82, ptr noundef %83, i8 noundef zeroext 39, i32 noundef 5, i32 noundef 45, i32 noundef %84, i32 noundef %85, ptr noundef null)
  %87 = zext i16 %86 to i32
  store i32 %87, ptr %12, align 4
  %88 = icmp ugt i32 %87, 0
  br i1 %88, label %89, label %96

89:                                               ; preds = %80
  %90 = load i32, ptr %12, align 4
  %91 = load i32, ptr %11, align 4
  %92 = add i32 %91, %90
  store i32 %92, ptr %11, align 4
  %93 = load i32, ptr %12, align 4
  %94 = load i32, ptr %13, align 4
  %95 = sub i32 %94, %93
  store i32 %95, ptr %13, align 4
  br label %96

96:                                               ; preds = %89, %80
  %97 = load i32, ptr %13, align 4
  %98 = icmp sle i32 %97, 0
  br i1 %98, label %99, label %100

99:                                               ; preds = %96
  store i32 1, ptr %15, align 4
  br label %191

100:                                              ; preds = %96
  %101 = load ptr, ptr %6, align 8
  %102 = load ptr, ptr %7, align 8
  %103 = load ptr, ptr %8, align 8
  %104 = load i32, ptr %11, align 4
  %105 = call zeroext i16 @elem_tv_short(ptr noundef %101, ptr noundef %102, ptr noundef %103, i8 noundef zeroext -64, i32 noundef 5, i32 noundef 75, i32 noundef %104, ptr noundef null)
  %106 = zext i16 %105 to i32
  store i32 %106, ptr %12, align 4
  %107 = icmp ugt i32 %106, 0
  br i1 %107, label %108, label %115

108:                                              ; preds = %100
  %109 = load i32, ptr %12, align 4
  %110 = load i32, ptr %11, align 4
  %111 = add i32 %110, %109
  store i32 %111, ptr %11, align 4
  %112 = load i32, ptr %12, align 4
  %113 = load i32, ptr %13, align 4
  %114 = sub i32 %113, %112
  store i32 %114, ptr %13, align 4
  br label %115

115:                                              ; preds = %108, %100
  %116 = load i32, ptr %13, align 4
  %117 = icmp sle i32 %116, 0
  br i1 %117, label %118, label %119

118:                                              ; preds = %115
  store i32 1, ptr %15, align 4
  br label %191

119:                                              ; preds = %115
  %120 = load ptr, ptr %6, align 8
  %121 = load ptr, ptr %7, align 8
  %122 = load ptr, ptr %8, align 8
  %123 = load i32, ptr %11, align 4
  %124 = load i32, ptr %13, align 4
  %125 = call zeroext i16 @elem_tlv(ptr noundef %120, ptr noundef %121, ptr noundef %122, i8 noundef zeroext 51, i32 noundef 11, i32 noundef 21, i32 noundef %123, i32 noundef %124, ptr noundef null)
  %126 = zext i16 %125 to i32
  store i32 %126, ptr %12, align 4
  %127 = icmp ugt i32 %126, 0
  br i1 %127, label %128, label %135

128:                                              ; preds = %119
  %129 = load i32, ptr %12, align 4
  %130 = load i32, ptr %11, align 4
  %131 = add i32 %130, %129
  store i32 %131, ptr %11, align 4
  %132 = load i32, ptr %12, align 4
  %133 = load i32, ptr %13, align 4
  %134 = sub i32 %133, %132
  store i32 %134, ptr %13, align 4
  br label %135

135:                                              ; preds = %128, %119
  %136 = load i32, ptr %13, align 4
  %137 = icmp sle i32 %136, 0
  br i1 %137, label %138, label %139

138:                                              ; preds = %135
  store i32 1, ptr %15, align 4
  br label %191

139:                                              ; preds = %135
  %140 = load ptr, ptr %6, align 8
  %141 = load ptr, ptr %7, align 8
  %142 = load ptr, ptr %8, align 8
  %143 = load i32, ptr %11, align 4
  %144 = load i32, ptr %13, align 4
  %145 = call zeroext i16 @elem_tlv(ptr noundef %140, ptr noundef %141, ptr noundef %142, i8 noundef zeroext 102, i32 noundef 11, i32 noundef 24, i32 noundef %143, i32 noundef %144, ptr noundef null)
  %146 = zext i16 %145 to i32
  store i32 %146, ptr %12, align 4
  %147 = icmp ugt i32 %146, 0
  br i1 %147, label %148, label %155

148:                                              ; preds = %139
  %149 = load i32, ptr %12, align 4
  %150 = load i32, ptr %11, align 4
  %151 = add i32 %150, %149
  store i32 %151, ptr %11, align 4
  %152 = load i32, ptr %12, align 4
  %153 = load i32, ptr %13, align 4
  %154 = sub i32 %153, %152
  store i32 %154, ptr %13, align 4
  br label %155

155:                                              ; preds = %148, %139
  %156 = load i32, ptr %13, align 4
  %157 = icmp sle i32 %156, 0
  br i1 %157, label %158, label %159

158:                                              ; preds = %155
  store i32 1, ptr %15, align 4
  br label %191

159:                                              ; preds = %155
  %160 = load ptr, ptr %6, align 8
  %161 = load ptr, ptr %7, align 8
  %162 = load ptr, ptr %8, align 8
  %163 = load i32, ptr %11, align 4
  %164 = load i32, ptr %13, align 4
  %165 = call zeroext i16 @elem_tlv_e(ptr noundef %160, ptr noundef %161, ptr noundef %162, i8 noundef zeroext 123, i32 noundef 11, i32 noundef 28, i32 noundef %163, i32 noundef %164, ptr noundef null)
  %166 = zext i16 %165 to i32
  store i32 %166, ptr %12, align 4
  %167 = icmp ugt i32 %166, 0
  br i1 %167, label %168, label %175

168:                                              ; preds = %159
  %169 = load i32, ptr %12, align 4
  %170 = load i32, ptr %11, align 4
  %171 = add i32 %170, %169
  store i32 %171, ptr %11, align 4
  %172 = load i32, ptr %12, align 4
  %173 = load i32, ptr %13, align 4
  %174 = sub i32 %173, %172
  store i32 %174, ptr %13, align 4
  br label %175

175:                                              ; preds = %168, %159
  %176 = load i32, ptr %13, align 4
  %177 = icmp ugt i32 %176, 0
  br i1 %177, label %178, label %190

178:                                              ; preds = %175
  %179 = load ptr, ptr %7, align 8
  %180 = load ptr, ptr %8, align 8
  %181 = load ptr, ptr %6, align 8
  %182 = load i32, ptr %11, align 4
  %183 = load i32, ptr %13, align 4
  %184 = sub i32 %183, 0
  %185 = call ptr @proto_tree_add_expert(ptr noundef %179, ptr noundef %180, ptr noundef @ei_nas_eps_extraneous_data, ptr noundef %181, i32 noundef %182, i32 noundef %184)
  %186 = load i32, ptr %13, align 4
  %187 = sub i32 %186, 0
  %188 = load i32, ptr %11, align 4
  %189 = add i32 %188, %187
  store i32 %189, ptr %11, align 4
  br label %190

190:                                              ; preds = %178, %175
  store i32 0, ptr %15, align 4
  br label %191

191:                                              ; preds = %190, %158, %138, %118, %99, %79, %59, %40
  call void @llvm.lifetime.end.p0(i64 4, ptr %14) #10
  call void @llvm.lifetime.end.p0(i64 4, ptr %13) #10
  call void @llvm.lifetime.end.p0(i64 4, ptr %12) #10
  call void @llvm.lifetime.end.p0(i64 4, ptr %11) #10
  %192 = load i32, ptr %15, align 4
  switch i32 %192, label %194 [
    i32 0, label %193
    i32 1, label %193
  ]

193:                                              ; preds = %191, %191
  ret void

194:                                              ; preds = %191
  unreachable
}