; Function Attrs: null_pointer_is_valid sspstrong uwtable
define hidden void @nas_esm_pdn_con_req(ptr noundef %0, ptr noundef %1, ptr noundef initializes((384, 388)) %2, i32 noundef %3, i32 noundef %4) #1 {
  %6 = getelementptr inbounds nuw i8, ptr %2, i64 384
  store i32 0, ptr %6, align 8
  %7 = shl i32 %3, 3
  %8 = load i32, ptr @hf_nas_eps_esm_pdn_type, align 4
  %9 = tail call ptr @proto_tree_add_bits_item(ptr noundef %1, i32 noundef %8, ptr noundef %0, i32 noundef %7, i32 noundef 4, i32 noundef 0)
  %10 = or disjoint i32 %7, 4
  %11 = load i32, ptr @hf_nas_eps_esm_request_type, align 4
  %12 = tail call ptr @proto_tree_add_bits_item(ptr noundef %1, i32 noundef %11, ptr noundef %0, i32 noundef %10, i32 noundef 4, i32 noundef 0)
  %13 = add i32 %4, -1
  %14 = icmp slt i32 %13, 1
  br i1 %14, label %59, label %15

15:                                               ; preds = %5
  %16 = add i32 %3, 1
  %17 = tail call zeroext i16 @elem_tv_short(ptr noundef %0, ptr noundef %1, ptr noundef %2, i8 noundef zeroext -48, i32 noundef 11, i32 noundef 5, i32 noundef %16, ptr noundef null)
  %18 = zext i16 %17 to i32
  %19 = sub nsw i32 %13, %18
  %20 = icmp slt i32 %19, 1
  br i1 %20, label %59, label %21

21:                                               ; preds = %15
  %22 = add i32 %16, %18
  %23 = tail call zeroext i16 @elem_tlv(ptr noundef %0, ptr noundef %1, ptr noundef %2, i8 noundef zeroext 40, i32 noundef 5, i32 noundef 43, i32 noundef %22, i32 noundef %19, ptr noundef null)
  %24 = zext i16 %23 to i32
  %25 = sub nsw i32 %19, %24
  %26 = icmp slt i32 %25, 1
  br i1 %26, label %59, label %27

27:                                               ; preds = %21
  %28 = add i32 %22, %24
  %29 = tail call zeroext i16 @elem_tlv(ptr noundef %0, ptr noundef %1, ptr noundef %2, i8 noundef zeroext 39, i32 noundef 5, i32 noundef 45, i32 noundef %28, i32 noundef %25, ptr noundef null)
  %30 = zext i16 %29 to i32
  %31 = sub nsw i32 %25, %30
  %32 = icmp slt i32 %31, 1
  br i1 %32, label %59, label %33

33:                                               ; preds = %27
  %34 = add i32 %28, %30
  %35 = tail call zeroext i16 @elem_tv_short(ptr noundef %0, ptr noundef %1, ptr noundef %2, i8 noundef zeroext -64, i32 noundef 5, i32 noundef 75, i32 noundef %34, ptr noundef null)
  %36 = zext i16 %35 to i32
  %37 = sub nsw i32 %31, %36
  %38 = icmp slt i32 %37, 1
  br i1 %38, label %59, label %39

39:                                               ; preds = %33
  %40 = add i32 %34, %36
  %41 = tail call zeroext i16 @elem_tlv(ptr noundef %0, ptr noundef %1, ptr noundef %2, i8 noundef zeroext 51, i32 noundef 11, i32 noundef 21, i32 noundef %40, i32 noundef %37, ptr noundef null)
  %42 = zext i16 %41 to i32
  %43 = sub nsw i32 %37, %42
  %44 = icmp slt i32 %43, 1
  br i1 %44, label %59, label %45

45:                                               ; preds = %39
  %46 = add i32 %40, %42
  %47 = tail call zeroext i16 @elem_tlv(ptr noundef %0, ptr noundef %1, ptr noundef %2, i8 noundef zeroext 102, i32 noundef 11, i32 noundef 24, i32 noundef %46, i32 noundef %43, ptr noundef null)
  %48 = zext i16 %47 to i32
  %49 = sub nsw i32 %43, %48
  %50 = icmp slt i32 %49, 1
  br i1 %50, label %59, label %51

51:                                               ; preds = %45
  %52 = add i32 %46, %48
  %53 = tail call zeroext i16 @elem_tlv_e(ptr noundef %0, ptr noundef %1, ptr noundef %2, i8 noundef zeroext 123, i32 noundef 11, i32 noundef 28, i32 noundef %52, i32 noundef %49, ptr noundef null)
  %54 = zext i16 %53 to i32
  %.not109 = icmp eq i32 %49, %54
  br i1 %.not109, label %59, label %55

55:                                               ; preds = %51
  %56 = sub nsw i32 %49, %54
  %57 = add i32 %52, %54
  %58 = tail call ptr @proto_tree_add_expert(ptr noundef %1, ptr noundef %2, ptr noundef nonnull @ei_nas_eps_extraneous_data, ptr noundef %0, i32 noundef %57, i32 noundef %56)
  br label %59

59:                                               ; preds = %51, %55, %45, %39, %33, %27, %21, %15, %5
  ret void
}